; Function Attrs: mustprogress uwtable
define void @_ZNK5Yosys3AST7AstNode11asAttrConstEv(ptr dead_on_unwind noalias writable sret(%"struct.Yosys::RTLIL::Const") align 8 %0, ptr noundef nonnull align 8 dereferenceable(284) %1) local_unnamed_addr #4 align 2 personality ptr @__gxx_personality_v0 {
  store i32 0, ptr %0, align 8
  %3 = getelementptr inbounds i8, ptr %0, i64 8
  tail call void @llvm.memset.p0.i64(ptr noundef nonnull align 8 dereferenceable(24) %3, i8 0, i64 24, i1 false)
  %4 = getelementptr inbounds i8, ptr %1, i64 112
  %5 = invoke noundef nonnull align 8 dereferenceable(24) ptr @_ZNSt6vectorIN5Yosys5RTLIL5StateESaIS2_EEaSERKS4_(ptr noundef nonnull align 8 dereferenceable(24) %3, ptr noundef nonnull align 8 dereferenceable(24) %4)
          to label %6 unwind label %13

6:                                                ; preds = %2
  %7 = getelementptr inbounds i8, ptr %1, i64 141
  %8 = load i8, ptr %7, align 1
  %9 = and i8 %8, 1
  %.not = icmp eq i8 %9, 0
  br i1 %.not, label %17, label %10

10:                                               ; preds = %6
  %11 = load i32, ptr %0, align 8
  %12 = or i32 %11, 1
  store i32 %12, ptr %0, align 8
  br label %17

13:                                               ; preds = %2
  %14 = landingpad { ptr, i32 }
          cleanup
  %15 = load ptr, ptr %3, align 8
  %.not.i.i.i.i = icmp eq ptr %15, null
  br i1 %.not.i.i.i.i, label %_ZN5Yosys5RTLIL5ConstD2Ev.exit, label %16

16:                                               ; preds = %13
  tail call void @_ZdlPv(ptr noundef nonnull %15) #33
  br label %_ZN5Yosys5RTLIL5ConstD2Ev.exit

_ZN5Yosys5RTLIL5ConstD2Ev.exit:                   ; preds = %13, %16
  resume { ptr, i32 } %14

17:                                               ; preds = %6, %10
  ret void
}